; Function Attrs: mustprogress nounwind uwtable
define dso_local void @_ZN6spdlog7details7log_msgC2ENSt6chrono10time_pointINS2_3_V212system_clockENS2_8durationIlSt5ratioILl1ELl1000000000EEEEEENS_10source_locEN3fmt3v1117basic_string_viewIcEENS_5level10level_enumESF_(ptr noundef nonnull writeonly align 8 captures(none) dereferenceable(96) initializes((0, 20), (24, 96)) %0, i64 %1, ptr noundef readonly byval(%"struct.spdlog::source_loc") align 8 captures(none) %2, ptr %3, i64 %4, i32 noundef %5, ptr noundef readonly byval(%"class.fmt::v11::basic_string_view") align 8 captures(none) %6) unnamed_addr #1 align 2 {
  store ptr %3, ptr %0, align 8, !tbaa !4
  %.sroa.2.0..sroa_idx = getelementptr inbounds nuw i8, ptr %0, i64 8
  store i64 %4, ptr %.sroa.2.0..sroa_idx, align 8, !tbaa !26
  %8 = getelementptr inbounds nuw i8, ptr %0, i64 16
  store i32 %5, ptr %8, align 8, !tbaa !43
  %9 = getelementptr inbounds nuw i8, ptr %0, i64 24
  store i64 %1, ptr %9, align 8, !tbaa !26
  %.b.i = load i1, ptr @_ZGVZN6spdlog7details2os9thread_idEvE3tid, align 1
  br i1 %.b.i, label %._crit_edge.i, label %10, !prof !62

._crit_edge.i:                                    ; preds = %7
  %.pre.i = tail call align 8 ptr @llvm.threadlocal.address.p0(ptr align 8 @_ZZN6spdlog7details2os9thread_idEvE3tid)
  %.pre = load i64, ptr %.pre.i, align 8, !tbaa !26
  br label %_ZN6spdlog7details2os9thread_idEv.exit

10:                                               ; preds = %7
  %11 = tail call noundef i64 (i64, ...) @syscall(i64 noundef 186) #37
  %12 = tail call align 8 ptr @llvm.threadlocal.address.p0(ptr align 8 @_ZZN6spdlog7details2os9thread_idEvE3tid)
  store i64 %11, ptr %12, align 8, !tbaa !26
  %13 = tail call ptr @llvm.invariant.start.p0(i64 8, ptr nonnull @_ZZN6spdlog7details2os9thread_idEvE3tid)
  store i1 true, ptr @_ZGVZN6spdlog7details2os9thread_idEvE3tid, align 1
  br label %_ZN6spdlog7details2os9thread_idEv.exit

_ZN6spdlog7details2os9thread_idEv.exit:           ; preds = %._crit_edge.i, %10
  %14 = phi i64 [ %.pre, %._crit_edge.i ], [ %11, %10 ]
  %15 = getelementptr inbounds nuw i8, ptr %0, i64 32
  store i64 %14, ptr %15, align 8, !tbaa !63
  %16 = getelementptr inbounds nuw i8, ptr %0, i64 40
  %17 = getelementptr inbounds nuw i8, ptr %0, i64 56
  tail call void @llvm.memset.p0.i64(ptr noundef nonnull align 8 dereferenceable(16) %16, i8 0, i64 16, i1 false)
  call void @llvm.memcpy.p0.p0.i64(ptr noundef nonnull align 8 dereferenceable(24) %17, ptr noundef nonnull align 8 dereferenceable(24) %2, i64 24, i1 false), !tbaa.struct !64
  %18 = getelementptr inbounds nuw i8, ptr %0, i64 80
  call void @llvm.memcpy.p0.p0.i64(ptr noundef nonnull align 8 dereferenceable(16) %18, ptr noundef nonnull align 8 dereferenceable(16) %6, i64 16, i1 false), !tbaa.struct !65
  ret void
}